; Function Attrs: mustprogress uwtable
define hidden void @_ZN8tstrings13unsafe_formatB5cxx11EPKcz(ptr dead_on_unwind noalias writable sret(%"class.std::__cxx11::basic_string") align 8 %0, ptr noundef readonly %1, ...) local_unnamed_addr #3 personality ptr @__gxx_personality_v0 {
  %3 = alloca [1 x %struct.__va_list_tag], align 16
  %.not = icmp eq ptr %1, null
  br i1 %.not, label %4, label %9

4:                                                ; preds = %2
  %5 = tail call ptr @__cxa_allocate_exception(i64 16) #13
  invoke void @_ZNSt16invalid_argumentC1EPKc(ptr noundef nonnull align 8 dereferenceable(16) %5, ptr noundef nonnull @.str)
          to label %6 unwind label %7

6:                                                ; preds = %4
  tail call void @__cxa_throw(ptr nonnull %5, ptr nonnull @_ZTISt16invalid_argument, ptr nonnull @_ZNSt16invalid_argumentD1Ev) #14
  unreachable

7:                                                ; preds = %4
  %8 = landingpad { ptr, i32 }
          cleanup
  tail call void @__cxa_free_exception(ptr %5) #13
  br label %22

9:                                                ; preds = %2
  tail call void @_ZNSt7__cxx1112basic_stringIcSt11char_traitsIcESaIcEEC1Ev(ptr noundef nonnull align 8 dereferenceable(32) %0) #13
  call void @llvm.va_start.p0(ptr nonnull %3)
  br label %10

10:                                               ; preds = %13, %9
  %11 = call noundef i64 @_ZNKSt7__cxx1112basic_stringIcSt11char_traitsIcESaIcEE4sizeEv(ptr noundef nonnull align 8 dereferenceable(32) %0) #13
  %12 = add i64 %11, 256
  invoke void @_ZNSt7__cxx1112basic_stringIcSt11char_traitsIcESaIcEE6resizeEm(ptr noundef nonnull align 8 dereferenceable(32) %0, i64 noundef %12)
          to label %13 unwind label %.loopexit

13:                                               ; preds = %10
  %14 = call ptr @_ZNSt7__cxx1112basic_stringIcSt11char_traitsIcESaIcEE5beginEv(ptr noundef nonnull align 8 dereferenceable(32) %0) #13
  %15 = call noundef i64 @_ZNKSt7__cxx1112basic_stringIcSt11char_traitsIcESaIcEE4sizeEv(ptr noundef nonnull align 8 dereferenceable(32) %0) #13
  %16 = call i32 @vsnprintf(ptr noundef nonnull %14, i64 noundef %15, ptr noundef nonnull %1, ptr noundef nonnull %3) #13
  %17 = icmp eq i32 %16, -1
  br i1 %17, label %10, label %18, !llvm.loop !6

18:                                               ; preds = %13
  call void @llvm.va_end.p0(ptr nonnull %3)
  %19 = sext i32 %16 to i64
  invoke void @_ZNSt7__cxx1112basic_stringIcSt11char_traitsIcESaIcEE6resizeEm(ptr noundef nonnull align 8 dereferenceable(32) %0, i64 noundef %19)
          to label %21 unwind label %.loopexit.split-lp

.loopexit:                                        ; preds = %10
  %lpad.loopexit = landingpad { ptr, i32 }
          cleanup
  br label %20

.loopexit.split-lp:                               ; preds = %18
  %lpad.loopexit.split-lp = landingpad { ptr, i32 }
          cleanup
  br label %20

20:                                               ; preds = %.loopexit.split-lp, %.loopexit
  %lpad.phi = phi { ptr, i32 } [ %lpad.loopexit, %.loopexit ], [ %lpad.loopexit.split-lp, %.loopexit.split-lp ]
  call void @_ZNSt7__cxx1112basic_stringIcSt11char_traitsIcESaIcEED1Ev(ptr noundef nonnull align 8 dereferenceable(32) %0) #13
  br label %22

21:                                               ; preds = %18
  ret void

22:                                               ; preds = %20, %7
  %.pn = phi { ptr, i32 } [ %lpad.phi, %20 ], [ %8, %7 ]
  resume { ptr, i32 } %.pn
}